; Function Attrs: mustprogress nounwind uwtable
define dso_local noundef zeroext i1 @_ZNK5clang17ObjCInterfaceDecl10hasODRHashEv(ptr nocapture noundef nonnull readonly align 8 dereferenceable(128) %0) local_unnamed_addr #0 align 2 {
  %2 = getelementptr inbounds nuw i8, ptr %0, i64 120
  %.0.copyload.i.i.i = load i64, ptr %2, align 8
  %.not.i = icmp eq i64 %.0.copyload.i.i.i, 0
  br i1 %.not.i, label %3, label %_ZNK5clang17ObjCInterfaceDecl13hasDefinitionEv.exit

3:                                                ; preds = %1
  %4 = getelementptr inbounds i8, ptr %0, i64 96
  %5 = load ptr, ptr %4, align 8
  %6 = getelementptr inbounds i8, ptr %5, i64 88
  %7 = tail call noundef ptr @_ZNK5clang12RedeclarableINS_17ObjCInterfaceDeclEE8DeclLink11getPreviousEPKS1_(ptr noundef nonnull align 8 dereferenceable(8) %6, ptr noundef nonnull %5)
  %.0.copyload.i.i.i.pre.i = load i64, ptr %2, align 8
  br label %_ZNK5clang17ObjCInterfaceDecl13hasDefinitionEv.exit

_ZNK5clang17ObjCInterfaceDecl13hasDefinitionEv.exit: ; preds = %1, %3
  %.0.copyload.i.i.i.i2 = phi i64 [ %.0.copyload.i.i.i.pre.i, %3 ], [ %.0.copyload.i.i.i, %1 ]
  %8 = icmp ugt i64 %.0.copyload.i.i.i.i2, 7
  br i1 %8, label %9, label %16

9:                                                ; preds = %_ZNK5clang17ObjCInterfaceDecl13hasDefinitionEv.exit
  %10 = and i64 %.0.copyload.i.i.i.i2, -8
  %11 = inttoptr i64 %10 to ptr
  %12 = getelementptr inbounds nuw i8, ptr %11, i64 72
  %13 = load i8, ptr %12, align 8
  %14 = and i8 %13, 32
  %15 = icmp ne i8 %14, 0
  br label %16

16:                                               ; preds = %_ZNK5clang17ObjCInterfaceDecl13hasDefinitionEv.exit, %9
  %.0 = phi i1 [ %15, %9 ], [ false, %_ZNK5clang17ObjCInterfaceDecl13hasDefinitionEv.exit ]
  ret i1 %.0
}